target datalayout = "e-m:e-p270:32:32-p271:32:32-p272:64:64-i64:64-i128:128-f80:128-n8:16:32:64-S128"
target triple = "x86_64-pc-linux-gnu"

%"class.absl::Duration" = type { %"class.absl::Duration::HiRep", i32 }
%"class.absl::Duration::HiRep" = type { i32, i32 }
%"struct.absl::(anonymous namespace)::MutexGlobals" = type { %"class.absl::once_flag", %"struct.std::atomic.8", [2 x i32], %"class.absl::Duration", [36 x i8] }
%"class.absl::once_flag" = type { %"struct.std::atomic.6" }
%"struct.std::atomic.6" = type { %"struct.std::__atomic_base.7" }
%"struct.std::__atomic_base.7" = type { i32 }
%"struct.std::atomic.8" = type { %"struct.std::__atomic_base.9" }
%"struct.std::__atomic_base.9" = type { i32 }
%"class.absl::synchronization_internal::KernelTimeout" = type { i64 }

@.str = private unnamed_addr constant [129 x i8] c"generated/home/dtcxzyw/WorkSpace/Projects/compilers/llvm-opt-benchmark/bench/abseil-cpp/abseil-cpp/absl/synchronization/mutex.cc\00", align 1
@.str.1 = private unnamed_addr constant [20 x i8] c"Check %s failed: %s\00", align 1
@.str.6 = private unnamed_addr constant [69 x i8] c"this->LockSlowWithDeadline(how, cond, KernelTimeout::Never(), flags)\00", align 1
@.str.7 = private unnamed_addr constant [41 x i8] c"condition untrue on return from LockSlow\00", align 1
@_ZN4absl12_GLOBAL__N_17globalsE = internal global { { { i32 } }, { i32 }, [2 x i32], %"class.absl::Duration", [36 x i8] } { { { i32 } } zeroinitializer, { i32 } zeroinitializer, [2 x i32] zeroinitializer, %"class.absl::Duration" zeroinitializer, [36 x i8] undef }, align 64

; Function Attrs: mustprogress nounwind uwtable
define linkonce_odr dso_local void @_ZN4absl24synchronization_internal13KernelTimeoutC2Ev(ptr noundef nonnull align 8 dereferenceable(8) %0) unnamed_addr #5 comdat align 2 {
  %2 = alloca ptr, align 8
  store ptr %0, ptr %2, align 8, !tbaa !131
  %3 = load ptr, ptr %2, align 8
  %4 = getelementptr inbounds nuw %"class.absl::synchronization_internal::KernelTimeout", ptr %3, i32 0, i32 0
  store i64 -1, ptr %4, align 8, !tbaa !133
  ret void
}

; Function Attrs: mustprogress nounwind uwtable
define linkonce_odr dso_local noundef i32 @_ZStanSt12memory_orderSt23__memory_order_modifier(i32 noundef %0, i32 noundef %1) #5 comdat {
  %3 = alloca i32, align 4
  %4 = alloca i32, align 4
  store i32 %0, ptr %3, align 4, !tbaa !53
  store i32 %1, ptr %4, align 4, !tbaa !181
  %5 = load i32, ptr %3, align 4, !tbaa !53
  %6 = load i32, ptr %4, align 4, !tbaa !181
  %7 = and i32 %5, %6
  ret i32 %7
}

; Function Attrs: mustprogress uwtable
define linkonce_odr dso_local i64 @_ZN4absl24synchronization_internal13KernelTimeout5NeverEv() #0 comdat align 2 {
  %1 = alloca %"class.absl::synchronization_internal::KernelTimeout", align 8
  call void @_ZN4absl24synchronization_internal13KernelTimeoutC2Ev(ptr noundef nonnull align 8 dereferenceable(8) %1)
  %2 = getelementptr inbounds nuw %"class.absl::synchronization_internal::KernelTimeout", ptr %1, i32 0, i32 0
  %3 = load i64, ptr %2, align 8
  ret i64 %3
}

; Function Attrs: alwaysinline mustprogress nounwind uwtable
define linkonce_odr dso_local void @_ZNSt13__atomic_baseIiE5storeEiSt12memory_order(ptr noundef nonnull align 4 dereferenceable(4) %0, i32 noundef %1, i32 noundef %2) #7 comdat align 2 {
  %4 = alloca ptr, align 8
  %5 = alloca i32, align 4
  %6 = alloca i32, align 4
  %7 = alloca i32, align 4
  %8 = alloca i32, align 4
  store ptr %0, ptr %4, align 8, !tbaa !142
  store i32 %1, ptr %5, align 4, !tbaa !16
  store i32 %2, ptr %6, align 4, !tbaa !53
  %9 = load ptr, ptr %4, align 8
  call void @llvm.lifetime.start.p0(i64 4, ptr %7) #18
  %10 = load i32, ptr %6, align 4, !tbaa !53
  %11 = call noundef i32 @_ZStanSt12memory_orderSt23__memory_order_modifier(i32 noundef %10, i32 noundef 65535)
  store i32 %11, ptr %7, align 4, !tbaa !53
  br label %12

12:                                               ; preds = %3
  br label %13

13:                                               ; preds = %12
  br label %14

14:                                               ; preds = %13
  br label %15

15:                                               ; preds = %14
  br label %16

16:                                               ; preds = %15
  br label %17

17:                                               ; preds = %16
  br label %18

18:                                               ; preds = %17
  br label %19

19:                                               ; preds = %18
  br label %20

20:                                               ; preds = %19
  %21 = getelementptr inbounds nuw %"struct.std::__atomic_base.9", ptr %9, i32 0, i32 0
  %22 = load i32, ptr %6, align 4, !tbaa !53
  %23 = load i32, ptr %5, align 4, !tbaa !16
  store i32 %23, ptr %8, align 4, !tbaa !16
  switch i32 %22, label %24 [
    i32 3, label %26
    i32 5, label %28
  ]

24:                                               ; preds = %20
  %25 = load i32, ptr %8, align 4
  store atomic i32 %25, ptr %21 monotonic, align 4
  br label %30

26:                                               ; preds = %20
  %27 = load i32, ptr %8, align 4
  store atomic i32 %27, ptr %21 release, align 4
  br label %30

28:                                               ; preds = %20
  %29 = load i32, ptr %8, align 4
  store atomic i32 %29, ptr %21 seq_cst, align 4
  br label %30

30:                                               ; preds = %28, %26, %24
  call void @llvm.lifetime.end.p0(i64 4, ptr %7) #18
  ret void
}

; Function Attrs: alwaysinline mustprogress nounwind uwtable
define linkonce_odr dso_local noundef i32 @_ZNKSt13__atomic_baseIiE4loadESt12memory_order(ptr noundef nonnull align 4 dereferenceable(4) %0, i32 noundef %1) #7 comdat align 2 {
  %3 = alloca ptr, align 8
  %4 = alloca i32, align 4
  %5 = alloca i32, align 4
  %6 = alloca i32, align 4
  store ptr %0, ptr %3, align 8, !tbaa !142
  store i32 %1, ptr %4, align 4, !tbaa !53
  %7 = load ptr, ptr %3, align 8
  call void @llvm.lifetime.start.p0(i64 4, ptr %5) #18
  %8 = load i32, ptr %4, align 4, !tbaa !53
  %9 = call noundef i32 @_ZStanSt12memory_orderSt23__memory_order_modifier(i32 noundef %8, i32 noundef 65535)
  store i32 %9, ptr %5, align 4, !tbaa !53
  br label %10

10:                                               ; preds = %2
  br label %11

11:                                               ; preds = %10
  br label %12

12:                                               ; preds = %11
  br label %13

13:                                               ; preds = %12
  br label %14

14:                                               ; preds = %13
  br label %15

15:                                               ; preds = %14
  %16 = getelementptr inbounds nuw %"struct.std::__atomic_base.9", ptr %7, i32 0, i32 0
  %17 = load i32, ptr %4, align 4, !tbaa !53
  switch i32 %17, label %18 [
    i32 1, label %20
    i32 2, label %20
    i32 5, label %22
  ]

18:                                               ; preds = %15
  %19 = load atomic i32, ptr %16 monotonic, align 4
  store i32 %19, ptr %6, align 4
  br label %24

20:                                               ; preds = %15, %15
  %21 = load atomic i32, ptr %16 acquire, align 4
  store i32 %21, ptr %6, align 4
  br label %24

22:                                               ; preds = %15
  %23 = load atomic i32, ptr %16 seq_cst, align 4
  store i32 %23, ptr %6, align 4
  br label %24

24:                                               ; preds = %22, %20, %18
  %25 = load i32, ptr %6, align 4, !tbaa !16
  call void @llvm.lifetime.end.p0(i64 4, ptr %5) #18
  ret i32 %25
}

; Function Attrs: cold mustprogress noinline optsize uwtable
define dso_local void @_ZN4absl5Mutex8LockSlowEPKNS_6MuHowSEPKNS_9ConditionEi(ptr noundef nonnull align 8 dereferenceable(8) %0, ptr noundef %1, ptr noundef %2, i32 noundef %3) #9 align 2 {
  %5 = alloca ptr, align 8
  %6 = alloca ptr, align 8
  %7 = alloca ptr, align 8
  %8 = alloca i32, align 4
  %9 = alloca %"class.absl::synchronization_internal::KernelTimeout", align 8
  %10 = alloca ptr, align 8
  store ptr %0, ptr %5, align 8, !tbaa !25
  store ptr %1, ptr %6, align 8, !tbaa !104
  store ptr %2, ptr %7, align 8, !tbaa !105
  store i32 %3, ptr %8, align 4, !tbaa !16
  %11 = load ptr, ptr %5, align 8
  %12 = call noundef i32 @_ZNKSt13__atomic_baseIiE4loadESt12memory_order(ptr noundef nonnull align 4 dereferenceable(4) getelementptr inbounds nuw (%"struct.absl::(anonymous namespace)::MutexGlobals", ptr @_ZN4absl12_GLOBAL__N_17globalsE, i32 0, i32 1), i32 noundef 0) #18
  %13 = icmp eq i32 %12, 0
  %14 = zext i1 %13 to i64
  %15 = call i64 @llvm.expect.i64(i64 %14, i64 0)
  %16 = icmp ne i64 %15, 0
  br i1 %16, label %17, label %23

17:                                               ; preds = %4
  %18 = call noundef i32 @_ZN4absl13base_internal7NumCPUsEv()
  %19 = icmp sgt i32 %18, 1
  br i1 %19, label %20, label %21

20:                                               ; preds = %17
  call void @_ZNSt13__atomic_baseIiE5storeEiSt12memory_order(ptr noundef nonnull align 4 dereferenceable(4) getelementptr inbounds nuw (%"struct.absl::(anonymous namespace)::MutexGlobals", ptr @_ZN4absl12_GLOBAL__N_17globalsE, i32 0, i32 1), i32 noundef 1500, i32 noundef 0) #18
  br label %22

21:                                               ; preds = %17
  call void @_ZNSt13__atomic_baseIiE5storeEiSt12memory_order(ptr noundef nonnull align 4 dereferenceable(4) getelementptr inbounds nuw (%"struct.absl::(anonymous namespace)::MutexGlobals", ptr @_ZN4absl12_GLOBAL__N_17globalsE, i32 0, i32 1), i32 noundef -1, i32 noundef 0) #18
  br label %22

22:                                               ; preds = %21, %20
  br label %23

23:                                               ; preds = %22, %4
  br label %24

24:                                               ; preds = %23
  %25 = load ptr, ptr %6, align 8, !tbaa !104
  %26 = load ptr, ptr %7, align 8, !tbaa !105
  %27 = call i64 @_ZN4absl24synchronization_internal13KernelTimeout5NeverEv()
  %28 = getelementptr inbounds nuw %"class.absl::synchronization_internal::KernelTimeout", ptr %9, i32 0, i32 0
  store i64 %27, ptr %28, align 8
  %29 = load i32, ptr %8, align 4, !tbaa !16
  %30 = getelementptr inbounds nuw %"class.absl::synchronization_internal::KernelTimeout", ptr %9, i32 0, i32 0
  %31 = load i64, ptr %30, align 8
  %32 = call noundef zeroext i1 @_ZN4absl5Mutex20LockSlowWithDeadlineEPKNS_6MuHowSEPKNS_9ConditionENS_24synchronization_internal13KernelTimeoutEi(ptr noundef nonnull align 8 dereferenceable(8) %11, ptr noundef %25, ptr noundef %26, i64 %31, i32 noundef %29)
  %33 = xor i1 %32, true
  %34 = zext i1 %33 to i64
  %35 = call i64 @llvm.expect.i64(i64 %34, i64 0)
  %36 = icmp ne i64 %35, 0
  br i1 %36, label %37, label %43

37:                                               ; preds = %24
  br label %38

38:                                               ; preds = %37
  call void @llvm.lifetime.start.p0(i64 8, ptr %10) #18
  store ptr getelementptr (i8, ptr @.str, i64 120), ptr %10, align 8, !tbaa !23
  call void (i32, ptr, i32, ptr, ...) @_ZN4absl16raw_log_internal6RawLogENS_11LogSeverityEPKciS3_z(i32 noundef 3, ptr noundef getelementptr (i8, ptr @.str, i64 120), i32 noundef 1850, ptr noundef @.str.1, ptr noundef @.str.6, ptr noundef @.str.7)
  br label %39

39:                                               ; preds = %38
  unreachable

40:                                               ; No predecessors!
  br label %41

41:                                               ; preds = %40
  call void @llvm.lifetime.end.p0(i64 8, ptr %10) #18
  br label %42

42:                                               ; preds = %41
  br label %43

43:                                               ; preds = %42, %24
  br label %44

44:                                               ; preds = %43
  ret void
}