; Function Attrs: cold mustprogress noinline optsize uwtable
define dso_local void @_ZN4absl5Mutex8LockSlowEPKNS_6MuHowSEPKNS_9ConditionEi(ptr noundef nonnull align 8 dereferenceable(8) %0, ptr noundef %1, ptr noundef %2, i32 noundef %3) local_unnamed_addr #10 align 2 {
  %5 = load atomic i32, ptr getelementptr inbounds nuw (i8, ptr @_ZN4absl12_GLOBAL__N_17globalsE, i64 4) monotonic, align 4
  %6 = icmp eq i32 %5, 0
  br i1 %6, label %.sink.split, label %9, !prof !83

.sink.split:                                      ; preds = %4
  %7 = tail call noundef i32 @_ZN4absl13base_internal7NumCPUsEv()
  %8 = icmp sgt i32 %7, 1
  %. = select i1 %8, i32 1500, i32 -1
  store atomic i32 %., ptr getelementptr inbounds nuw (i8, ptr @_ZN4absl12_GLOBAL__N_17globalsE, i64 4) monotonic, align 4
  br label %9

9:                                                ; preds = %.sink.split, %4
  %10 = tail call noundef zeroext i1 @_ZN4absl5Mutex20LockSlowWithDeadlineEPKNS_6MuHowSEPKNS_9ConditionENS_24synchronization_internal13KernelTimeoutEi(ptr noundef nonnull align 8 dereferenceable(8) %0, ptr noundef %1, ptr noundef %2, i64 -1, i32 noundef %3)
  br i1 %10, label %12, label %11, !prof !19

11:                                               ; preds = %9
  tail call void (i32, ptr, i32, ptr, ...) @_ZN4absl16raw_log_internal6RawLogENS_11LogSeverityEPKciS3_z(i32 noundef 3, ptr noundef nonnull getelementptr inbounds nuw (i8, ptr @.str, i64 120), i32 noundef 1850, ptr noundef nonnull @.str.1, ptr noundef nonnull @.str.6, ptr noundef nonnull @.str.7)
  unreachable

12:                                               ; preds = %9
  ret void
}